; Function Attrs: inlinehint mustprogress optsize uwtable
define internal noundef ptr @"_ZZN8nanobind6detail11func_createILb0ELb1EZL32nanobind_init_test_intrusive_extRNS_7module_EE3$_2iJP4TestEJLm0EEJNS_5scopeENS_4nameEEEEP7_objectOT1_PFT2_DpT3_ESt16integer_sequenceImJXspT4_EEEDpRKT5_ENUlPvPSA_PhNS_9rv_policyEPNS0_12cleanup_listEE_8__invokeESO_SP_SQ_SR_ST_"(ptr readnone captures(none) %0, ptr noundef readonly captures(none) %1, ptr noundef readonly captures(none) %2, i32 %3, ptr noundef %4) #10 align 2 personality ptr @__gxx_personality_v0 {
  %6 = alloca %"struct.nanobind::detail::tuple.52", align 8
  call void @llvm.lifetime.start.p0(i64 8, ptr nonnull %6) #17
  %7 = load ptr, ptr %1, align 8, !tbaa !44
  %8 = load i8, ptr %2, align 1, !tbaa !39
  %9 = call noundef zeroext i1 @_ZN8nanobind6detail11nb_type_getEPKSt9type_infoP7_objecthPNS0_12cleanup_listEPPv(ptr noundef nonnull @_ZTI4Test, ptr noundef %7, i8 noundef zeroext %8, ptr noundef %4, ptr noundef nonnull align 8 dereferenceable(8) %6) #18
  br i1 %9, label %10, label %"_ZZN8nanobind6detail11func_createILb0ELb1EZL32nanobind_init_test_intrusive_extRNS_7module_EE3$_2iJP4TestEJLm0EEJNS_5scopeENS_4nameEEEEP7_objectOT1_PFT2_DpT3_ESt16integer_sequenceImJXspT4_EEEDpRKT5_ENKUlPvPSA_PhNS_9rv_policyEPNS0_12cleanup_listEE_clESO_SP_SQ_SR_ST_.exit"

10:                                               ; preds = %5
  %11 = load ptr, ptr %6, align 8, !tbaa !55
  %.not.i.i.i = icmp eq ptr %11, null
  br i1 %.not.i.i.i, label %_ZN8nanobind3refI4TestEC2EPS1_.exit.i, label %12

12:                                               ; preds = %10
  %13 = getelementptr inbounds nuw i8, ptr %11, i64 8
  call void @_ZNK8nanobind17intrusive_counter7inc_refEv(ptr noundef nonnull align 8 dereferenceable(8) %13) #18
  br label %_ZN8nanobind3refI4TestEC2EPS1_.exit.i

_ZN8nanobind3refI4TestEC2EPS1_.exit.i:            ; preds = %12, %10
  %14 = load ptr, ptr %11, align 8, !tbaa !45
  %15 = getelementptr inbounds nuw i8, ptr %14, i64 16
  %16 = load ptr, ptr %15, align 8
  %17 = invoke noundef i32 %16(ptr noundef nonnull align 8 dereferenceable(16) %11, i32 noundef 1) #16
          to label %18 unwind label %25

18:                                               ; preds = %_ZN8nanobind3refI4TestEC2EPS1_.exit.i
  %19 = getelementptr inbounds nuw i8, ptr %11, i64 8
  %20 = call noundef zeroext i1 @_ZNK8nanobind17intrusive_counter7dec_refEv(ptr noundef nonnull align 8 dereferenceable(8) %19) #18
  br i1 %20, label %21, label %"_ZZL32nanobind_init_test_intrusive_extRN8nanobind7module_EENK3$_2clEP4Test.exit"

21:                                               ; preds = %18
  %22 = load ptr, ptr %11, align 8, !tbaa !45
  %23 = getelementptr inbounds nuw i8, ptr %22, i64 8
  %24 = load ptr, ptr %23, align 8
  call void %24(ptr noundef nonnull align 8 dereferenceable(16) %11) #18
  br label %"_ZZL32nanobind_init_test_intrusive_extRN8nanobind7module_EENK3$_2clEP4Test.exit"

25:                                               ; preds = %_ZN8nanobind3refI4TestEC2EPS1_.exit.i
  %26 = landingpad { ptr, i32 }
          cleanup
  %27 = getelementptr inbounds nuw i8, ptr %11, i64 8
  %28 = call noundef zeroext i1 @_ZNK8nanobind17intrusive_counter7dec_refEv(ptr noundef nonnull align 8 dereferenceable(8) %27) #18
  br i1 %28, label %29, label %_ZN8nanobind3refI4TestED2Ev.exit4.i

29:                                               ; preds = %25
  %30 = load ptr, ptr %11, align 8, !tbaa !45
  %31 = getelementptr inbounds nuw i8, ptr %30, i64 8
  %32 = load ptr, ptr %31, align 8
  call void %32(ptr noundef nonnull align 8 dereferenceable(16) %11) #18
  br label %_ZN8nanobind3refI4TestED2Ev.exit4.i

_ZN8nanobind3refI4TestED2Ev.exit4.i:              ; preds = %29, %25
  resume { ptr, i32 } %26

"_ZZL32nanobind_init_test_intrusive_extRN8nanobind7module_EENK3$_2clEP4Test.exit": ; preds = %18, %21
  %33 = sext i32 %17 to i64
  %34 = invoke ptr @PyLong_FromLong(i64 noundef %33) #16
          to label %"_ZZN8nanobind6detail11func_createILb0ELb1EZL32nanobind_init_test_intrusive_extRNS_7module_EE3$_2iJP4TestEJLm0EEJNS_5scopeENS_4nameEEEEP7_objectOT1_PFT2_DpT3_ESt16integer_sequenceImJXspT4_EEEDpRKT5_ENKUlPvPSA_PhNS_9rv_policyEPNS0_12cleanup_listEE_clESO_SP_SQ_SR_ST_.exit" unwind label %35

35:                                               ; preds = %"_ZZL32nanobind_init_test_intrusive_extRN8nanobind7module_EENK3$_2clEP4Test.exit"
  %36 = landingpad { ptr, i32 }
          catch ptr null
  %37 = extractvalue { ptr, i32 } %36, 0
  call void @__clang_call_terminate(ptr %37) #19
  unreachable

"_ZZN8nanobind6detail11func_createILb0ELb1EZL32nanobind_init_test_intrusive_extRNS_7module_EE3$_2iJP4TestEJLm0EEJNS_5scopeENS_4nameEEEEP7_objectOT1_PFT2_DpT3_ESt16integer_sequenceImJXspT4_EEEDpRKT5_ENKUlPvPSA_PhNS_9rv_policyEPNS0_12cleanup_listEE_clESO_SP_SQ_SR_ST_.exit": ; preds = %"_ZZL32nanobind_init_test_intrusive_extRN8nanobind7module_EENK3$_2clEP4Test.exit", %5
  %.0.i = phi ptr [ inttoptr (i64 1 to ptr), %5 ], [ %34, %"_ZZL32nanobind_init_test_intrusive_extRN8nanobind7module_EENK3$_2clEP4Test.exit" ]
  call void @llvm.lifetime.end.p0(i64 8, ptr nonnull %6) #17
  ret ptr %.0.i
}